target datalayout = "e-m:e-p270:32:32-p271:32:32-p272:64:64-i64:64-i128:128-f80:128-n8:16:32:64-S128"
target triple = "x86_64-pc-linux-gnu"

%struct.SDL_Renderer = type { ptr, ptr, ptr, ptr, ptr, ptr, ptr, ptr, ptr, ptr, ptr, ptr, ptr, ptr, ptr, ptr, ptr, ptr, ptr, ptr, ptr, ptr, ptr, ptr, ptr, ptr, ptr, ptr, ptr, ptr, i32, i8, ptr, i8, i8, i8, i64, i64, ptr, %struct.SDL_RenderViewState, %struct.SDL_FPoint, i32, i32, ptr, ptr, ptr, i32, float, float, float, float, %struct.SDL_FColor, i32, i32, i32, ptr, ptr, ptr, ptr, i32, %struct.SDL_FColor, float, %struct.SDL_Rect, %struct.SDL_Rect, i8, i8, i8, i8, ptr, i64, i64, i8, ptr, ptr, i32, ptr, i8, ptr, ptr }
%struct.SDL_RenderViewState = type { i32, i32, %struct.SDL_Rect, %struct.SDL_Rect, %struct.SDL_Rect, %struct.SDL_Rect, i8, %struct.SDL_FPoint, i32, i32, i32, %struct.SDL_FRect, %struct.SDL_FRect, %struct.SDL_FPoint, %struct.SDL_FPoint, %struct.SDL_FPoint }
%struct.SDL_FRect = type { float, float, float, float }
%struct.SDL_FPoint = type { float, float }
%struct.SDL_FColor = type { float, float, float, float }
%struct.SDL_Rect = type { i32, i32, i32, i32 }
%struct.SDL_Texture = type { i32, i32, i32, i32, i32, float, float, i32, i32, i32, %struct.SDL_FColor, %struct.SDL_RenderViewState, ptr, ptr, ptr, ptr, i32, %struct.SDL_Rect, ptr, i32, i32, ptr, ptr, ptr }
%struct.SDL_RenderCommand = type { i32, %union.anon, ptr }
%union.anon = type { %struct.anon.1 }
%struct.anon.1 = type { i64, i64, float, %struct.SDL_FColor, i32, ptr, i32, i32, i32, ptr }
%struct.SDL_VertexSolid = type { %struct.SDL_FPoint, %struct.SDL_FColor }

; Function Attrs: nounwind uwtable
define internal zeroext i1 @GLES2_QueueDrawPoints(ptr noundef %0, ptr noundef %1, ptr noundef %2, i32 noundef %3) #0 {
  %5 = alloca i1, align 1
  %6 = alloca ptr, align 8
  %7 = alloca ptr, align 8
  %8 = alloca ptr, align 8
  %9 = alloca i32, align 4
  %10 = alloca i8, align 1
  %11 = alloca ptr, align 8
  %12 = alloca i32, align 4
  %13 = alloca %struct.SDL_FColor, align 4
  %14 = alloca float, align 4
  %15 = alloca i32, align 4
  %16 = alloca float, align 4
  store ptr %0, ptr %6, align 8
  store ptr %1, ptr %7, align 8
  store ptr %2, ptr %8, align 8
  store i32 %3, ptr %9, align 4
  call void @llvm.lifetime.start.p0(i64 1, ptr %10) #6
  %17 = load ptr, ptr %6, align 8
  %18 = getelementptr inbounds nuw %struct.SDL_Renderer, ptr %17, i32 0, i32 44
  %19 = load ptr, ptr %18, align 8
  %20 = icmp ne ptr %19, null
  br i1 %20, label %21, label %37

21:                                               ; preds = %4
  %22 = load ptr, ptr %6, align 8
  %23 = getelementptr inbounds nuw %struct.SDL_Renderer, ptr %22, i32 0, i32 44
  %24 = load ptr, ptr %23, align 8
  %25 = getelementptr inbounds nuw %struct.SDL_Texture, ptr %24, i32 0, i32 0
  %26 = load i32, ptr %25, align 8
  %27 = icmp eq i32 %26, 372645892
  br i1 %27, label %35, label %28

28:                                               ; preds = %21
  %29 = load ptr, ptr %6, align 8
  %30 = getelementptr inbounds nuw %struct.SDL_Renderer, ptr %29, i32 0, i32 44
  %31 = load ptr, ptr %30, align 8
  %32 = getelementptr inbounds nuw %struct.SDL_Texture, ptr %31, i32 0, i32 0
  %33 = load i32, ptr %32, align 8
  %34 = icmp eq i32 %33, 370546692
  br label %35

35:                                               ; preds = %28, %21
  %36 = phi i1 [ true, %21 ], [ %34, %28 ]
  br label %37

37:                                               ; preds = %35, %4
  %38 = phi i1 [ false, %4 ], [ %36, %35 ]
  %39 = zext i1 %38 to i8
  store i8 %39, ptr %10, align 1
  call void @llvm.lifetime.start.p0(i64 8, ptr %11) #6
  %40 = load ptr, ptr %6, align 8
  %41 = load i32, ptr %9, align 4
  %42 = sext i32 %41 to i64
  %43 = mul i64 %42, 24
  %44 = load ptr, ptr %7, align 8
  %45 = getelementptr inbounds nuw %struct.SDL_RenderCommand, ptr %44, i32 0, i32 1
  %46 = getelementptr inbounds nuw %struct.anon.1, ptr %45, i32 0, i32 0
  %47 = call ptr @SDL_AllocateRenderVertices(ptr noundef %40, i64 noundef %43, i64 noundef 0, ptr noundef %46)
  store ptr %47, ptr %11, align 8
  call void @llvm.lifetime.start.p0(i64 4, ptr %12) #6
  call void @llvm.lifetime.start.p0(i64 16, ptr %13) #6
  %48 = load ptr, ptr %7, align 8
  %49 = getelementptr inbounds nuw %struct.SDL_RenderCommand, ptr %48, i32 0, i32 1
  %50 = getelementptr inbounds nuw %struct.anon.1, ptr %49, i32 0, i32 3
  call void @llvm.memcpy.p0.p0.i64(ptr align 4 %13, ptr align 4 %50, i64 16, i1 false)
  call void @llvm.lifetime.start.p0(i64 4, ptr %14) #6
  %51 = load ptr, ptr %7, align 8
  %52 = getelementptr inbounds nuw %struct.SDL_RenderCommand, ptr %51, i32 0, i32 1
  %53 = getelementptr inbounds nuw %struct.anon.1, ptr %52, i32 0, i32 2
  %54 = load float, ptr %53, align 8
  store float %54, ptr %14, align 4
  %55 = load ptr, ptr %11, align 8
  %56 = icmp ne ptr %55, null
  br i1 %56, label %58, label %57

57:                                               ; preds = %37
  store i1 false, ptr %5, align 1
  store i32 1, ptr %15, align 4
  br label %120

58:                                               ; preds = %37
  %59 = load float, ptr %14, align 4
  %60 = getelementptr inbounds nuw %struct.SDL_FColor, ptr %13, i32 0, i32 0
  %61 = load float, ptr %60, align 4
  %62 = fmul float %61, %59
  store float %62, ptr %60, align 4
  %63 = load float, ptr %14, align 4
  %64 = getelementptr inbounds nuw %struct.SDL_FColor, ptr %13, i32 0, i32 1
  %65 = load float, ptr %64, align 4
  %66 = fmul float %65, %63
  store float %66, ptr %64, align 4
  %67 = load float, ptr %14, align 4
  %68 = getelementptr inbounds nuw %struct.SDL_FColor, ptr %13, i32 0, i32 2
  %69 = load float, ptr %68, align 4
  %70 = fmul float %69, %67
  store float %70, ptr %68, align 4
  %71 = load i8, ptr %10, align 1, !range !3, !noundef !4
  %72 = trunc i8 %71 to i1
  br i1 %72, label %73, label %81

73:                                               ; preds = %58
  call void @llvm.lifetime.start.p0(i64 4, ptr %16) #6
  %74 = getelementptr inbounds nuw %struct.SDL_FColor, ptr %13, i32 0, i32 0
  %75 = load float, ptr %74, align 4
  store float %75, ptr %16, align 4
  %76 = getelementptr inbounds nuw %struct.SDL_FColor, ptr %13, i32 0, i32 2
  %77 = load float, ptr %76, align 4
  %78 = getelementptr inbounds nuw %struct.SDL_FColor, ptr %13, i32 0, i32 0
  store float %77, ptr %78, align 4
  %79 = load float, ptr %16, align 4
  %80 = getelementptr inbounds nuw %struct.SDL_FColor, ptr %13, i32 0, i32 2
  store float %79, ptr %80, align 4
  call void @llvm.lifetime.end.p0(i64 4, ptr %16) #6
  br label %81

81:                                               ; preds = %73, %58
  %82 = load i32, ptr %9, align 4
  %83 = sext i32 %82 to i64
  %84 = load ptr, ptr %7, align 8
  %85 = getelementptr inbounds nuw %struct.SDL_RenderCommand, ptr %84, i32 0, i32 1
  %86 = getelementptr inbounds nuw %struct.anon.1, ptr %85, i32 0, i32 1
  store i64 %83, ptr %86, align 8
  store i32 0, ptr %12, align 4
  br label %87

87:                                               ; preds = %116, %81
  %88 = load i32, ptr %12, align 4
  %89 = load i32, ptr %9, align 4
  %90 = icmp slt i32 %88, %89
  br i1 %90, label %91, label %119

91:                                               ; preds = %87
  %92 = load ptr, ptr %8, align 8
  %93 = load i32, ptr %12, align 4
  %94 = sext i32 %93 to i64
  %95 = getelementptr inbounds %struct.SDL_FPoint, ptr %92, i64 %94
  %96 = getelementptr inbounds nuw %struct.SDL_FPoint, ptr %95, i32 0, i32 0
  %97 = load float, ptr %96, align 4
  %98 = fadd float 5.000000e-01, %97
  %99 = load ptr, ptr %11, align 8
  %100 = getelementptr inbounds nuw %struct.SDL_VertexSolid, ptr %99, i32 0, i32 0
  %101 = getelementptr inbounds nuw %struct.SDL_FPoint, ptr %100, i32 0, i32 0
  store float %98, ptr %101, align 4
  %102 = load ptr, ptr %8, align 8
  %103 = load i32, ptr %12, align 4
  %104 = sext i32 %103 to i64
  %105 = getelementptr inbounds %struct.SDL_FPoint, ptr %102, i64 %104
  %106 = getelementptr inbounds nuw %struct.SDL_FPoint, ptr %105, i32 0, i32 1
  %107 = load float, ptr %106, align 4
  %108 = fadd float 5.000000e-01, %107
  %109 = load ptr, ptr %11, align 8
  %110 = getelementptr inbounds nuw %struct.SDL_VertexSolid, ptr %109, i32 0, i32 0
  %111 = getelementptr inbounds nuw %struct.SDL_FPoint, ptr %110, i32 0, i32 1
  store float %108, ptr %111, align 4
  %112 = load ptr, ptr %11, align 8
  %113 = getelementptr inbounds nuw %struct.SDL_VertexSolid, ptr %112, i32 0, i32 1
  call void @llvm.memcpy.p0.p0.i64(ptr align 4 %113, ptr align 4 %13, i64 16, i1 false)
  %114 = load ptr, ptr %11, align 8
  %115 = getelementptr inbounds nuw %struct.SDL_VertexSolid, ptr %114, i32 1
  store ptr %115, ptr %11, align 8
  br label %116

116:                                              ; preds = %91
  %117 = load i32, ptr %12, align 4
  %118 = add nsw i32 %117, 1
  store i32 %118, ptr %12, align 4
  br label %87, !llvm.loop !7

119:                                              ; preds = %87
  store i1 true, ptr %5, align 1
  store i32 1, ptr %15, align 4
  br label %120

120:                                              ; preds = %119, %57
  call void @llvm.lifetime.end.p0(i64 4, ptr %14) #6
  call void @llvm.lifetime.end.p0(i64 16, ptr %13) #6
  call void @llvm.lifetime.end.p0(i64 4, ptr %12) #6
  call void @llvm.lifetime.end.p0(i64 8, ptr %11) #6
  call void @llvm.lifetime.end.p0(i64 1, ptr %10) #6
  %121 = load i1, ptr %5, align 1
  ret i1 %121
}