; Function Attrs: nounwind uwtable
define internal noundef zeroext i1 @GLES2_QueueDrawPoints(ptr noundef %0, ptr noundef %1, ptr noundef readonly captures(none) %2, i32 noundef %3) #0 {
  %5 = getelementptr inbounds nuw i8, ptr %0, i64 464
  %6 = load ptr, ptr %5, align 8
  %.not = icmp eq ptr %6, null
  br i1 %.not, label %11, label %7

7:                                                ; preds = %4
  %8 = load i32, ptr %6, align 8
  %9 = icmp eq i32 %8, 372645892
  %10 = icmp eq i32 %8, 370546692
  %spec.select = or i1 %9, %10
  br label %11

11:                                               ; preds = %7, %4
  %12 = phi i1 [ false, %4 ], [ %spec.select, %7 ]
  %13 = sext i32 %3 to i64
  %14 = mul nsw i64 %13, 24
  %15 = getelementptr inbounds nuw i8, ptr %1, i64 8
  %16 = tail call ptr @SDL_AllocateRenderVertices(ptr noundef nonnull %0, i64 noundef %14, i64 noundef 0, ptr noundef nonnull %15) #10
  %.sroa.14.0..sroa_idx = getelementptr inbounds nuw i8, ptr %1, i64 40
  %.sroa.14.0.copyload = load float, ptr %.sroa.14.0..sroa_idx, align 4
  %.not41 = icmp ne ptr %16, null
  br i1 %.not41, label %17, label %.loopexit

17:                                               ; preds = %11
  %18 = getelementptr inbounds nuw i8, ptr %1, i64 24
  %19 = load float, ptr %18, align 8
  %20 = getelementptr inbounds nuw i8, ptr %1, i64 28
  %.sroa.10.0..sroa_idx = getelementptr inbounds nuw i8, ptr %1, i64 36
  %.sroa.10.0.copyload = load float, ptr %.sroa.10.0..sroa_idx, align 4
  %.sroa.8.0..sroa_idx = getelementptr inbounds nuw i8, ptr %1, i64 32
  %.sroa.8.0.copyload = load float, ptr %.sroa.8.0..sroa_idx, align 4
  %.sroa.0.0.copyload = load float, ptr %20, align 4
  %21 = fmul float %19, %.sroa.0.0.copyload
  %22 = fmul float %19, %.sroa.8.0.copyload
  %23 = fmul float %19, %.sroa.10.0.copyload
  %.sroa.10.0 = select i1 %12, float %21, float %23
  %.sroa.0.0 = select i1 %12, float %23, float %21
  %24 = getelementptr inbounds nuw i8, ptr %1, i64 16
  store i64 %13, ptr %24, align 8
  %25 = icmp sgt i32 %3, 0
  br i1 %25, label %.lr.ph.preheader, label %.loopexit

.lr.ph.preheader:                                 ; preds = %17
  %wide.trip.count = zext nneg i32 %3 to i64
  br label %.lr.ph

.lr.ph:                                           ; preds = %.lr.ph.preheader, %.lr.ph
  %indvars.iv = phi i64 [ 0, %.lr.ph.preheader ], [ %indvars.iv.next, %.lr.ph ]
  %.03643 = phi ptr [ %16, %.lr.ph.preheader ], [ %34, %.lr.ph ]
  %26 = getelementptr inbounds nuw %struct.SDL_FPoint, ptr %2, i64 %indvars.iv
  %27 = load float, ptr %26, align 4
  %28 = fadd float %27, 5.000000e-01
  store float %28, ptr %.03643, align 4
  %29 = getelementptr inbounds nuw i8, ptr %26, i64 4
  %30 = load float, ptr %29, align 4
  %31 = fadd float %30, 5.000000e-01
  %32 = getelementptr inbounds nuw i8, ptr %.03643, i64 4
  store float %31, ptr %32, align 4
  %33 = getelementptr inbounds nuw i8, ptr %.03643, i64 8
  store float %.sroa.0.0, ptr %33, align 4
  %.sroa.8.0..sroa_idx6 = getelementptr inbounds nuw i8, ptr %.03643, i64 12
  store float %22, ptr %.sroa.8.0..sroa_idx6, align 4
  %.sroa.10.0..sroa_idx8 = getelementptr inbounds nuw i8, ptr %.03643, i64 16
  store float %.sroa.10.0, ptr %.sroa.10.0..sroa_idx8, align 4
  %.sroa.14.0..sroa_idx11 = getelementptr inbounds nuw i8, ptr %.03643, i64 20
  store float %.sroa.14.0.copyload, ptr %.sroa.14.0..sroa_idx11, align 4
  %34 = getelementptr inbounds nuw i8, ptr %.03643, i64 24
  %indvars.iv.next = add nuw nsw i64 %indvars.iv, 1
  %exitcond.not = icmp eq i64 %indvars.iv.next, %wide.trip.count
  br i1 %exitcond.not, label %.loopexit, label %.lr.ph, !llvm.loop !10

.loopexit:                                        ; preds = %.lr.ph, %17, %11
  ret i1 %.not41
}